; Function Attrs: nounwind uwtable
define internal i32 @ml_dsa_65_to_SubjectPublicKeyInfo_pem_encode(ptr noundef %0, ptr noundef %1, ptr noundef %2, ptr noundef readnone captures(address_is_null) %3, i32 noundef %4, ptr noundef %5, ptr noundef %6) #0 {
  %8 = alloca ptr, align 8
  %.not = icmp eq ptr %3, null
  br i1 %.not, label %10, label %9

9:                                                ; preds = %7
  tail call void @ERR_new() #5
  tail call void @ERR_set_debug(ptr noundef nonnull @.str, i32 noundef 1595, ptr noundef nonnull @__func__.ml_dsa_65_to_SubjectPublicKeyInfo_pem_encode) #5
  tail call void (i32, i32, ptr, ...) @ERR_set_error(i32 noundef 57, i32 noundef 524550, ptr noundef null) #5
  br label %key2any_encode.exit

10:                                               ; preds = %7
  %11 = and i32 %4, 2
  %.not7 = icmp eq i32 %11, 0
  br i1 %.not7, label %39, label %12

12:                                               ; preds = %10
  %13 = icmp eq ptr %2, null
  br i1 %13, label %14, label %15

14:                                               ; preds = %12
  tail call void @ERR_new() #5
  tail call void @ERR_set_debug(ptr noundef nonnull @.str, i32 noundef 1140, ptr noundef nonnull @__func__.key2any_encode) #5
  tail call void (i32, i32, ptr, ...) @ERR_set_error(i32 noundef 57, i32 noundef 786690, ptr noundef null) #5
  br label %key2any_encode.exit

15:                                               ; preds = %12
  %16 = load ptr, ptr %0, align 8, !tbaa !3
  %17 = tail call ptr @ossl_bio_new_from_core_bio(ptr noundef %16, ptr noundef %1) #5
  %.not28.i = icmp eq ptr %17, null
  br i1 %.not28.i, label %37, label %18

18:                                               ; preds = %15
  %19 = icmp eq ptr %5, null
  br i1 %19, label %23, label %20

20:                                               ; preds = %18
  %21 = getelementptr inbounds nuw i8, ptr %0, i64 24
  %22 = tail call i32 @ossl_pw_set_ossl_passphrase_cb(ptr noundef nonnull %21, ptr noundef nonnull %5, ptr noundef %6) #5
  %.not29.i = icmp eq i32 %22, 0
  br i1 %.not29.i, label %37, label %23

23:                                               ; preds = %20, %18
  call void @llvm.lifetime.start.p0(i64 8, ptr nonnull %8) #5
  store ptr null, ptr %8, align 8, !tbaa !16
  %24 = tail call ptr @X509_PUBKEY_new() #5
  %25 = icmp eq ptr %24, null
  br i1 %25, label %35, label %26

26:                                               ; preds = %23
  %27 = call i32 @ossl_ml_dsa_i2d_pubkey(ptr noundef nonnull %2, ptr noundef nonnull %8) #5
  %28 = icmp slt i32 %27, 1
  br i1 %28, label %35, label %29

29:                                               ; preds = %26
  %30 = call ptr @OBJ_nid2obj(i32 noundef 1458) #5
  %31 = load ptr, ptr %8, align 8, !tbaa !16
  %32 = call i32 @X509_PUBKEY_set0_param(ptr noundef nonnull %24, ptr noundef %30, i32 noundef -1, ptr noundef null, ptr noundef %31, i32 noundef %27) #5
  %.not.i = icmp eq i32 %32, 0
  br i1 %.not.i, label %35, label %33

33:                                               ; preds = %29
  call void @llvm.lifetime.end.p0(i64 8, ptr nonnull %8) #5
  %34 = call i32 @PEM_write_bio_X509_PUBKEY(ptr noundef nonnull %17, ptr noundef nonnull %24) #5
  br label %key_to_spki_pem_pub_bio.exit

35:                                               ; preds = %23, %26, %29
  call void @ERR_new() #5
  call void @ERR_set_debug(ptr noundef nonnull @.str, i32 noundef 165, ptr noundef nonnull @__func__.key_to_pubkey) #5
  call void (i32, i32, ptr, ...) @ERR_set_error(i32 noundef 57, i32 noundef 524299, ptr noundef null) #5
  call void @X509_PUBKEY_free(ptr noundef %24) #5
  %36 = load ptr, ptr %8, align 8, !tbaa !16
  call void @CRYPTO_free(ptr noundef %36, ptr noundef nonnull @.str, i32 noundef 167) #5
  call void @llvm.lifetime.end.p0(i64 8, ptr nonnull %8) #5
  br label %key_to_spki_pem_pub_bio.exit

key_to_spki_pem_pub_bio.exit:                     ; preds = %35, %33
  %.0.i912 = phi ptr [ %24, %33 ], [ null, %35 ]
  %.0.i8 = phi i32 [ %34, %33 ], [ 0, %35 ]
  call void @X509_PUBKEY_free(ptr noundef %.0.i912) #5
  br label %37

37:                                               ; preds = %key_to_spki_pem_pub_bio.exit, %20, %15
  %.1.i = phi i32 [ %.0.i8, %key_to_spki_pem_pub_bio.exit ], [ 0, %20 ], [ 0, %15 ]
  %38 = call i32 @BIO_free(ptr noundef %17) #5
  br label %key2any_encode.exit

39:                                               ; preds = %10
  tail call void @ERR_new() #5
  tail call void @ERR_set_debug(ptr noundef nonnull @.str, i32 noundef 1595, ptr noundef nonnull @__func__.ml_dsa_65_to_SubjectPublicKeyInfo_pem_encode) #5
  tail call void (i32, i32, ptr, ...) @ERR_set_error(i32 noundef 57, i32 noundef 524550, ptr noundef null) #5
  br label %key2any_encode.exit

key2any_encode.exit:                              ; preds = %37, %14, %39, %9
  %.0 = phi i32 [ 0, %9 ], [ 0, %39 ], [ 0, %14 ], [ %.1.i, %37 ]
  ret i32 %.0
}